target datalayout = "e-m:e-p270:32:32-p271:32:32-p272:64:64-i64:64-i128:128-f80:128-n8:16:32:64-S128"
target triple = "x86_64-pc-linux-gnu"

%struct.xcb_void_cookie_t = type { i32 }

; Function Attrs: nounwind uwtable
define internal ptr @allocate_shm_buffer(ptr noundef %0, i64 noundef %1) #1 {
  %3 = alloca ptr, align 8
  %4 = alloca ptr, align 8
  %5 = alloca i64, align 8
  %6 = alloca ptr, align 8
  %7 = alloca i32, align 4
  %8 = alloca ptr, align 8
  %9 = alloca ptr, align 8
  %10 = alloca i32, align 4
  %11 = alloca i32, align 4
  %12 = alloca %struct.xcb_void_cookie_t, align 4
  store ptr %0, ptr %4, align 8, !tbaa !84
  store i64 %1, ptr %5, align 8, !tbaa !59
  call void @llvm.lifetime.start.p0(i64 8, ptr %6) #8
  %13 = load ptr, ptr %4, align 8, !tbaa !84
  store ptr %13, ptr %6, align 8, !tbaa !79
  call void @llvm.lifetime.start.p0(i64 4, ptr %7) #8
  call void @llvm.lifetime.start.p0(i64 8, ptr %8) #8
  call void @llvm.lifetime.start.p0(i64 8, ptr %9) #8
  call void @llvm.lifetime.start.p0(i64 4, ptr %10) #8
  %14 = load i64, ptr %5, align 8, !tbaa !59
  %15 = call i32 @shmget(i32 noundef 0, i64 noundef %14, i32 noundef 1023) #8
  store i32 %15, ptr %10, align 4, !tbaa !37
  %16 = load i32, ptr %10, align 4, !tbaa !37
  %17 = icmp eq i32 %16, -1
  br i1 %17, label %18, label %19

18:                                               ; preds = %2
  store ptr null, ptr %3, align 8
  store i32 1, ptr %11, align 4
  br label %52

19:                                               ; preds = %2
  %20 = load ptr, ptr %6, align 8, !tbaa !79
  %21 = call i32 @xcb_generate_id(ptr noundef %20)
  store i32 %21, ptr %7, align 4, !tbaa !37
  %22 = load ptr, ptr %6, align 8, !tbaa !79
  %23 = load i32, ptr %7, align 4, !tbaa !37
  %24 = load i32, ptr %10, align 4, !tbaa !37
  %25 = call i32 @xcb_shm_attach(ptr noundef %22, i32 noundef %23, i32 noundef %24, i8 noundef zeroext 0)
  %26 = getelementptr inbounds nuw %struct.xcb_void_cookie_t, ptr %12, i32 0, i32 0
  store i32 %25, ptr %26, align 4
  %27 = load i32, ptr %10, align 4, !tbaa !37
  %28 = call ptr @shmat(i32 noundef %27, ptr noundef null, i32 noundef 0) #8
  store ptr %28, ptr %9, align 8, !tbaa !29
  %29 = load i32, ptr %10, align 4, !tbaa !37
  %30 = call i32 @shmctl(i32 noundef %29, i32 noundef 0, ptr noundef null) #8
  %31 = load ptr, ptr %9, align 8, !tbaa !29
  %32 = ptrtoint ptr %31 to i64
  %33 = icmp eq i64 %32, -1
  br i1 %33, label %37, label %34

34:                                               ; preds = %19
  %35 = load ptr, ptr %9, align 8, !tbaa !29
  %36 = icmp ne ptr %35, null
  br i1 %36, label %38, label %37

37:                                               ; preds = %34, %19
  store ptr null, ptr %3, align 8
  store i32 1, ptr %11, align 4
  br label %52

38:                                               ; preds = %34
  %39 = load ptr, ptr %9, align 8, !tbaa !29
  %40 = load i64, ptr %5, align 8, !tbaa !59
  %41 = load i32, ptr %7, align 4, !tbaa !37
  %42 = zext i32 %41 to i64
  %43 = inttoptr i64 %42 to ptr
  %44 = call ptr @av_buffer_create(ptr noundef %39, i64 noundef %40, ptr noundef @free_shm_buffer, ptr noundef %43, i32 noundef 0)
  store ptr %44, ptr %8, align 8, !tbaa !156
  %45 = load ptr, ptr %8, align 8, !tbaa !156
  %46 = icmp ne ptr %45, null
  br i1 %46, label %50, label %47

47:                                               ; preds = %38
  %48 = load ptr, ptr %9, align 8, !tbaa !29
  %49 = call i32 @shmdt(ptr noundef %48) #8
  br label %50

50:                                               ; preds = %47, %38
  %51 = load ptr, ptr %8, align 8, !tbaa !156
  store ptr %51, ptr %3, align 8
  store i32 1, ptr %11, align 4
  br label %52

52:                                               ; preds = %50, %37, %18
  call void @llvm.lifetime.end.p0(i64 4, ptr %10) #8
  call void @llvm.lifetime.end.p0(i64 8, ptr %9) #8
  call void @llvm.lifetime.end.p0(i64 8, ptr %8) #8
  call void @llvm.lifetime.end.p0(i64 4, ptr %7) #8
  call void @llvm.lifetime.end.p0(i64 8, ptr %6) #8
  %53 = load ptr, ptr %3, align 8
  ret ptr %53
}